Certificate:
    Data:
        Version: 3 (0x2)
        Serial Number: 1 (0x1)
        Signature Algorithm: sha256WithRSAEncryption
        Issuer: CN=Entidad Certificadora AutopartesPrueba, ST=AutopartesPrueba, C=HN/emailAddress=mlr.AutopartesPrueba@hotmail.com, O=AutopartesPrueba, OU=AutopartesPrueba
        Validity
            Not Before: Apr 10 17:44:12 2020 GMT
            Not After : Apr  9 17:44:12 2025 GMT
        Subject: CN=localhost, ST=AutopartesPrueba, C=HN/emailAddress=mlr.AutopartesPrueba@hotmail.com, O=AutopartesPrueba, OU=AutopartesPrueba
        Subject Public Key Info:
            Public Key Algorithm: rsaEncryption
                RSA Public-Key: (2048 bit)
                Modulus:
                    00:cd:5a:14:c4:67:ca:e1:e0:7d:4a:59:63:a5:e0:
                    4d:ec:2d:d9:62:e7:3b:e5:a8:c4:46:68:65:60:b7:
                    a1:f6:a5:da:8f:0f:89:b7:ae:35:47:2e:c9:81:28:
                    37:c1:5e:ee:ad:4c:b8:f8:7f:0c:b5:b2:24:8b:18:
                    02:a1:a8:35:ce:5a:9b:f5:66:27:fb:c7:31:0c:6b:
                    91:ce:eb:10:a6:11:c2:74:0a:39:a6:45:b4:c2:64:
                    ef:6c:7d:e7:8b:af:4e:50:2d:ca:a6:e7:3f:9f:bd:
                    de:2a:c8:f0:63:e4:02:3d:c5:2b:34:91:e1:59:d4:
                    06:ac:a8:a7:b2:2b:2d:48:9d:00:29:ea:99:10:73:
                    45:cb:07:8c:8c:f4:d0:6c:76:46:b6:cb:40:48:4d:
                    7b:d9:c0:69:17:20:0a:dc:6a:48:a1:9e:1f:fa:ac:
                    8c:aa:dd:75:12:1a:ee:83:38:28:c6:41:0d:c2:c5:
                    b0:34:2b:87:00:a6:48:c8:3f:85:94:fb:21:57:b1:
                    c9:3a:a2:75:09:65:e2:bc:b1:52:32:47:52:d3:58:
                    2a:65:2b:2f:8e:93:38:c1:d9:66:98:c0:42:2e:57:
                    96:ba:3d:3b:99:5b:fc:33:34:a2:ec:c2:76:33:3b:
                    1a:cf:b8:84:c7:a1:28:ad:6e:bb:da:2d:e6:6e:b3:
                    50:85
                Exponent: 65537 (0x10001)
        X509v3 extensions:
            X509v3 Basic Constraints: 
                CA:FALSE
            X509v3 Key Usage: 
                Digital Signature, Non Repudiation, Key Encipherment
            X509v3 Subject Alternative Name: 
                DNS:localhost
    Signature Algorithm: sha256WithRSAEncryption
         d9:03:66:16:b3:cd:80:1e:81:45:61:fc:c8:09:31:f0:89:37:
         d1:45:83:c2:a1:a9:b6:e1:7c:7a:49:8a:94:5f:07:0d:d2:4a:
         38:5e:38:3b:15:93:8e:ea:8f:1c:03:09:a8:2d:ee:e6:6b:50:
         75:a6:2e:65:74:fc:65:99:28:eb:e7:2e:3a:54:a9:98:c6:de:
         12:e2:68:4f:0a:2c:f0:50:d0:de:3b:db:29:4f:35:cc:6b:88:
         c6:9e:72:f6:ea:6d:eb:36:b0:6c:51:70:a9:eb:1f:83:d5:e5:
         20:d2:9e:af:f7:44:de:f6:3c:b9:3b:46:e6:14:f8:d2:b6:44:
         95:e8:f3:56:e0:ce:4f:33:d2:6d:ef:5c:72:15:da:f2:22:95:
         1f:27:92:6c:45:9c:7a:8c:2c:73:a0:84:d5:be:d1:fe:06:dc:
         67:01:36:db:b0:81:7c:ea:69:95:76:65:fa:12:f1:3a:dd:49:
         8f:3b:15:7c:b5:ef:e0:c9:be:4d:51:7f:81:21:1d:4a:31:10:
         ef:f3:92:bb:65:a2:16:d6:fa:e2:0e:ad:e7:ca:55:ff:a2:02:
         31:89:14:c0:ea:2d:b4:c1:38:de:42:8f:c2:79:ef:81:6a:a9:
         bf:83:0b:36:69:35:e3:9e:c3:fc:63:dd:8e:44:9e:e1:7e:c6:
         2f:52:ef:58
-----BEGIN CERTIFICATE-----
MIIEEDCCAvigAwIBAgIBATANBgkqhkiG9w0BAQsFADCBwDEvMC0GA1UEAwwmRW50
aWRhZCBDZXJ0aWZpY2Fkb3JhIEF1dG9wYXJ0ZXNQcnVlYmExGTAXBgNVBAgMEEF1
dG9wYXJ0ZXNQcnVlYmExCzAJBgNVBAYTAkhOMS8wLQYJKoZIhvcNAQkBFiBtbHIu
QXV0b3BhcnRlc1BydWViYUBob3RtYWlsLmNvbTEZMBcGA1UECgwQQXV0b3BhcnRl
c1BydWViYTEZMBcGA1UECwwQQXV0b3BhcnRlc1BydWViYTAeFw0yMDA0MTAxNzQ0
MTJaFw0yNTA0MDkxNzQ0MTJaMIGjMRIwEAYDVQQDDAlsb2NhbGhvc3QxGTAXBgNV
BAgMEEF1dG9wYXJ0ZXNQcnVlYmExCzAJBgNVBAYTAkhOMS8wLQYJKoZIhvcNAQkB
FiBtbHIuQXV0b3BhcnRlc1BydWViYUBob3RtYWlsLmNvbTEZMBcGA1UECgwQQXV0
b3BhcnRlc1BydWViYTEZMBcGA1UECwwQQXV0b3BhcnRlc1BydWViYTCCASIwDQYJ
KoZIhvcNAQEBBQADggEPADCCAQoCggEBAM1aFMRnyuHgfUpZY6XgTewt2WLnO+Wo
xEZoZWC3ofal2o8PibeuNUcuyYEoN8Fe7q1MuPh/DLWyJIsYAqGoNc5am/VmJ/vH
MQxrkc7rEKYRwnQKOaZFtMJk72x954uvTlAtyqbnP5+93irI8GPkAj3FKzSR4VnU
Bqyop7IrLUidACnqmRBzRcsHjIz00Gx2RrbLQEhNe9nAaRcgCtxqSKGeH/qsjKrd
dRIa7oM4KMZBDcLFsDQrhwCmSMg/hZT7IVexyTqidQll4ryxUjJHUtNYKmUrL46T
OMHZZpjAQi5Xlro9O5lb/DM0ouzCdjM7Gs+4hMehKK1uu9ot5m6zUIUCAwEAAaMw
MC4wCQYDVR0TBAIwADALBgNVHQ8EBAMCBeAwFAYDVR0RBA0wC4IJbG9jYWxob3N0
MA0GCSqGSIb3DQEBCwUAA4IBAQDZA2YWs82AHoFFYfzICTHwiTfRRYPCoam24Xx6
SYqUXwcN0ko4Xjg7FZOO6o8cAwmoLe7ma1B1pi5ldPxlmSjr5y46VKmYxt4S4mhP
CizwUNDeO9spTzXMa4jGnnL26m3rNrBsUXCp6x+D1eUg0p6v90Te9jy5O0bmFPjS
tkSV6PNW4M5PM9Jt71xyFdryIpUfJ5JsRZx6jCxzoITVvtH+BtxnATbbsIF86mmV
dmX6EvE63UmPOxV8te/gyb5NUX+BIR1KMRDv85K7ZaIW1vriDq3nylX/ogIxiRTA
6i20wTjeQo/Cee+Baqm/gws2aTXjnsP8Y92ORJ7hfsYvUu9Y
-----END CERTIFICATE-----
